Certificate:
    Data:
        Version: 3 (0x2)
        Serial Number:
            1d:d2:7a:f2:f4:b2:20:5d:26:3e:da:22:ad:1f:0a:11
        Signature Algorithm: sha256WithRSAEncryption
        Issuer: CN=ChangeMe
        Validity
            Not Before: Jan 18 14:35:12 2022 GMT
            Not After : Jan 16 14:35:12 2032 GMT
        Subject: CN=server
        Subject Public Key Info:
            Public Key Algorithm: rsaEncryption
                RSA Public-Key: (2048 bit)
                Modulus:
                    00:e8:63:5d:00:a7:35:17:7a:5f:6a:67:cc:26:3a:
                    6e:9a:79:ab:a0:2c:98:ab:5c:fc:b4:99:46:7d:dd:
                    8d:33:27:cb:d1:25:58:23:18:66:ee:73:b7:64:71:
                    ee:17:1c:4c:2a:c1:cd:bf:48:97:a6:8d:f5:c0:46:
                    33:f3:1c:65:e3:e5:0b:a4:eb:bf:c6:4e:a4:bc:75:
                    07:da:64:b4:56:51:34:21:23:60:61:35:e7:60:fd:
                    5f:7d:7c:cf:07:a4:fb:37:71:83:36:14:4c:2f:05:
                    7c:9b:a1:b4:91:c9:a7:10:03:50:7a:94:83:80:c1:
                    5c:7f:0d:37:1d:e3:ca:e7:54:56:15:43:4f:a2:0b:
                    f8:6e:f1:40:53:59:e3:66:ad:3f:25:94:96:34:41:
                    4e:2d:35:89:b9:88:db:5d:f9:45:68:a5:59:bc:86:
                    dd:03:54:2b:57:96:34:4b:19:f8:f5:02:49:7d:cc:
                    5e:5b:76:16:6c:e5:ad:03:94:d4:f9:00:f8:26:bb:
                    5c:82:99:e9:d6:5e:7a:7d:32:5b:79:e3:5c:f1:58:
                    42:1a:fb:ed:a7:ee:2e:ac:d9:d0:72:94:31:ef:41:
                    eb:02:eb:a0:cd:0e:9f:4c:39:9e:5c:3e:af:d1:74:
                    a4:49:70:75:db:fb:2c:47:ff:90:eb:01:27:c8:a3:
                    98:8f
                Exponent: 65537 (0x10001)
        X509v3 extensions:
            X509v3 Basic Constraints: 
                CA:FALSE
            X509v3 Subject Key Identifier: 
                03:40:B9:A8:A2:00:19:61:A0:B6:79:BE:2E:A3:59:F1:55:79:78:43
            X509v3 Authority Key Identifier: 
                keyid:8B:9D:68:B8:BC:C6:20:07:8B:C7:A7:19:3F:0B:0B:29:28:61:91:EE
                DirName:/CN=ChangeMe
                serial:60:4A:C2:22:2E:F8:52:13:94:6A:80:C5:3A:F1:60:74:E4:61:74:38

            X509v3 Extended Key Usage: 
                TLS Web Server Authentication
            X509v3 Key Usage: 
                Digital Signature, Key Encipherment
            X509v3 Subject Alternative Name: 
                DNS:server
    Signature Algorithm: sha256WithRSAEncryption
         3f:d5:20:54:c6:94:42:d7:18:2c:86:97:77:45:78:4d:35:7b:
         c3:8c:39:c3:c7:ca:48:05:ad:d4:08:0d:03:82:23:9a:8f:7d:
         13:3a:76:91:bf:88:50:00:cc:53:a1:9f:5a:a9:e9:5c:0f:eb:
         05:f1:ec:7e:18:52:e6:90:5b:34:79:9f:67:77:7d:31:4d:56:
         e8:27:85:97:90:2c:56:8b:76:1d:07:36:c9:45:a8:b9:c5:6b:
         66:90:d5:28:a0:09:92:f2:05:11:2b:e4:d4:9c:4c:05:95:2b:
         0d:59:89:28:7c:73:09:62:6a:d9:9c:25:7a:f1:62:66:9f:ce:
         fe:39:ea:45:07:22:eb:dc:3f:54:03:53:67:aa:97:cf:40:d4:
         4c:3c:2d:41:3d:7a:38:81:18:64:d7:e4:66:95:c2:95:7f:63:
         9f:aa:6b:53:62:64:ab:05:80:eb:9b:bc:ce:ad:fd:2b:d4:80:
         61:a3:bd:14:f2:ad:33:02:b3:8f:b3:d1:94:ec:6f:9e:9a:f6:
         41:9a:c5:e2:82:f0:08:6a:11:7e:d2:95:d0:fe:4b:d8:2e:e6:
         89:09:e8:3f:a0:81:95:ad:f1:ec:32:a2:60:bd:a5:24:5e:42:
         80:12:7f:83:37:d5:8c:ef:08:f1:10:76:dc:04:aa:77:c2:40:
         fb:24:29:40
-----BEGIN CERTIFICATE-----
MIIDYTCCAkmgAwIBAgIQHdJ68vSyIF0mPtoirR8KETANBgkqhkiG9w0BAQsFADAT
MREwDwYDVQQDDAhDaGFuZ2VNZTAeFw0yMjAxMTgxNDM1MTJaFw0zMjAxMTYxNDM1
MTJaMBExDzANBgNVBAMMBnNlcnZlcjCCASIwDQYJKoZIhvcNAQEBBQADggEPADCC
AQoCggEBAOhjXQCnNRd6X2pnzCY6bpp5q6AsmKtc/LSZRn3djTMny9ElWCMYZu5z
t2Rx7hccTCrBzb9Il6aN9cBGM/McZePlC6Trv8ZOpLx1B9pktFZRNCEjYGE152D9
X318zwek+zdxgzYUTC8FfJuhtJHJpxADUHqUg4DBXH8NNx3jyudUVhVDT6IL+G7x
QFNZ42atPyWUljRBTi01ibmI2135RWilWbyG3QNUK1eWNEsZ+PUCSX3MXlt2Fmzl
rQOU1PkA+Ca7XIKZ6dZeen0yW3njXPFYQhr77afuLqzZ0HKUMe9B6wLroM0On0w5
nlw+r9F0pElwddv7LEf/kOsBJ8ijmI8CAwEAAaOBsjCBrzAJBgNVHRMEAjAAMB0G
A1UdDgQWBBQDQLmoogAZYaC2eb4uo1nxVXl4QzBOBgNVHSMERzBFgBSLnWi4vMYg
B4vHpxk/CwspKGGR7qEXpBUwEzERMA8GA1UEAwwIQ2hhbmdlTWWCFGBKwiIu+FIT
lGqAxTrxYHTkYXQ4MBMGA1UdJQQMMAoGCCsGAQUFBwMBMAsGA1UdDwQEAwIFoDAR
BgNVHREECjAIggZzZXJ2ZXIwDQYJKoZIhvcNAQELBQADggEBAD/VIFTGlELXGCyG
l3dFeE01e8OMOcPHykgFrdQIDQOCI5qPfRM6dpG/iFAAzFOhn1qp6VwP6wXx7H4Y
UuaQWzR5n2d3fTFNVugnhZeQLFaLdh0HNslFqLnFa2aQ1SigCZLyBREr5NScTAWV
Kw1ZiSh8cwliatmcJXrxYmafzv456kUHIuvcP1QDU2eql89A1Ew8LUE9ejiBGGTX
5GaVwpV/Y5+qa1NiZKsFgOubvM6t/SvUgGGjvRTyrTMCs4+z0ZTsb56a9kGaxeKC
8AhqEX7SldD+S9gu5okJ6D+ggZWt8ewyomC9pSReQoASf4M31YzvCPEQdtwEqnfC
QPskKUA=
-----END CERTIFICATE-----
