Certificate:
    Data:
        Version: 3 (0x2)
        Serial Number:
            d1:ff:d1:bd:4c:cc:9f:64:5a:48:7c:da:17:f7:33:86
        Signature Algorithm: sha256WithRSAEncryption
        Issuer: CN=ChangeMe
        Validity
            Not Before: Jan 18 14:57:18 2022 GMT
            Not After : Jan 16 14:57:18 2032 GMT
        Subject: CN=server
        Subject Public Key Info:
            Public Key Algorithm: rsaEncryption
                RSA Public-Key: (2048 bit)
                Modulus:
                    00:e8:08:fd:82:8d:4c:f0:ad:de:1f:0a:0d:5c:4d:
                    07:48:4b:96:0b:06:fa:e9:c5:4b:97:90:63:56:4b:
                    82:28:95:a4:d9:90:72:20:65:ca:f9:24:e7:f5:93:
                    29:ed:41:3a:ee:b3:bb:44:65:11:10:3d:80:8a:fb:
                    51:f8:4c:63:eb:fd:ee:95:d8:f4:c2:e6:fd:9d:93:
                    ea:30:53:4b:6a:ba:61:d0:ee:73:53:cc:84:eb:06:
                    64:ce:dc:f9:0a:5b:32:aa:d7:32:df:f9:41:6f:16:
                    15:c9:14:9e:6d:9a:60:63:1e:ab:97:56:a9:a5:72:
                    04:67:2a:fe:f1:c3:c3:f6:a8:fb:9a:4f:1f:43:75:
                    14:ca:d5:e0:c9:7f:fd:6e:ea:67:cc:0e:f2:17:44:
                    1f:47:17:77:9d:d5:b2:e7:37:8a:14:91:04:1c:2e:
                    e3:da:e9:e3:3f:bd:a6:74:99:3c:6d:25:52:7f:d2:
                    fa:a8:60:1f:86:52:65:3a:2b:50:e7:ed:fc:35:14:
                    f5:f3:a6:44:b9:55:ca:50:24:e9:12:82:56:85:6b:
                    f8:b7:e2:b1:00:80:28:8c:c8:06:0a:c7:4e:f8:22:
                    84:8d:b5:4b:fd:3e:b2:8f:4f:4c:56:d1:03:a3:35:
                    42:9e:d8:69:7f:81:52:c4:50:c4:bf:34:94:0c:62:
                    19:2f
                Exponent: 65537 (0x10001)
        X509v3 extensions:
            X509v3 Basic Constraints: 
                CA:FALSE
            X509v3 Subject Key Identifier: 
                8E:06:42:6F:98:41:AA:83:74:65:5F:51:49:B4:A7:17:D2:98:F2:14
            X509v3 Authority Key Identifier: 
                keyid:41:37:F0:64:B6:55:A6:D0:CF:CC:A8:53:89:43:70:24:55:46:10:77
                DirName:/CN=ChangeMe
                serial:55:3C:32:C0:06:81:8D:07:66:A8:C1:52:9D:3B:87:C3:45:82:14:32

            X509v3 Extended Key Usage: 
                TLS Web Server Authentication
            X509v3 Key Usage: 
                Digital Signature, Key Encipherment
            X509v3 Subject Alternative Name: 
                DNS:server
    Signature Algorithm: sha256WithRSAEncryption
         44:d0:06:72:f3:a9:f4:74:be:61:31:24:43:b1:91:83:15:59:
         39:d7:d5:a5:aa:b8:78:88:40:45:f6:a5:56:fe:e6:c0:66:ae:
         b8:a5:b8:d5:54:99:d1:74:18:c8:1a:e5:2e:d9:a5:b8:b6:a7:
         8d:c8:c6:e5:80:4a:3d:89:df:65:6a:4c:f8:5a:8f:59:d7:2f:
         fb:f7:69:32:f3:db:cd:bf:00:ab:9b:4d:28:3d:4d:dd:81:23:
         78:10:e1:f0:f2:c7:e1:10:8d:aa:1e:3b:ae:f5:b9:c4:86:5d:
         0e:da:cc:33:ff:66:69:a1:11:f1:2f:36:15:5c:bf:ae:9d:20:
         d8:ba:1f:79:2a:90:43:3d:66:be:a3:81:49:64:6b:b9:90:10:
         5c:43:39:1b:a5:cf:ae:f5:f4:e9:19:82:0c:dd:d1:42:ce:9d:
         de:a7:39:e8:39:89:2b:93:b6:c6:41:60:33:a0:08:82:46:9f:
         33:8f:72:af:b2:ea:16:71:70:22:95:f8:5f:a5:2c:b5:7e:b0:
         6e:fc:04:a2:38:c9:3f:d2:ee:3b:ab:fa:59:4e:78:a1:27:ec:
         3b:9c:54:aa:63:9d:cf:a3:dd:32:94:ad:98:94:0e:8a:83:7b:
         f0:cd:cf:6d:eb:6b:8e:18:99:90:2b:da:50:32:d5:df:7b:e4:
         7d:fd:c1:fa
-----BEGIN CERTIFICATE-----
MIIDYjCCAkqgAwIBAgIRANH/0b1MzJ9kWkh82hf3M4YwDQYJKoZIhvcNAQELBQAw
EzERMA8GA1UEAwwIQ2hhbmdlTWUwHhcNMjIwMTE4MTQ1NzE4WhcNMzIwMTE2MTQ1
NzE4WjARMQ8wDQYDVQQDDAZzZXJ2ZXIwggEiMA0GCSqGSIb3DQEBAQUAA4IBDwAw
ggEKAoIBAQDoCP2CjUzwrd4fCg1cTQdIS5YLBvrpxUuXkGNWS4IolaTZkHIgZcr5
JOf1kyntQTrus7tEZREQPYCK+1H4TGPr/e6V2PTC5v2dk+owU0tqumHQ7nNTzITr
BmTO3PkKWzKq1zLf+UFvFhXJFJ5tmmBjHquXVqmlcgRnKv7xw8P2qPuaTx9DdRTK
1eDJf/1u6mfMDvIXRB9HF3ed1bLnN4oUkQQcLuPa6eM/vaZ0mTxtJVJ/0vqoYB+G
UmU6K1Dn7fw1FPXzpkS5VcpQJOkSglaFa/i34rEAgCiMyAYKx074IoSNtUv9PrKP
T0xW0QOjNUKe2Gl/gVLEUMS/NJQMYhkvAgMBAAGjgbIwga8wCQYDVR0TBAIwADAd
BgNVHQ4EFgQUjgZCb5hBqoN0ZV9RSbSnF9KY8hQwTgYDVR0jBEcwRYAUQTfwZLZV
ptDPzKhTiUNwJFVGEHehF6QVMBMxETAPBgNVBAMMCENoYW5nZU1lghRVPDLABoGN
B2aowVKdO4fDRYIUMjATBgNVHSUEDDAKBggrBgEFBQcDATALBgNVHQ8EBAMCBaAw
EQYDVR0RBAowCIIGc2VydmVyMA0GCSqGSIb3DQEBCwUAA4IBAQBE0AZy86n0dL5h
MSRDsZGDFVk519Wlqrh4iEBF9qVW/ubAZq64pbjVVJnRdBjIGuUu2aW4tqeNyMbl
gEo9id9lakz4Wo9Z1y/792ky89vNvwCrm00oPU3dgSN4EOHw8sfhEI2qHjuu9bnE
hl0O2swz/2ZpoRHxLzYVXL+unSDYuh95KpBDPWa+o4FJZGu5kBBcQzkbpc+u9fTp
GYIM3dFCzp3epznoOYkrk7bGQWAzoAiCRp8zj3KvsuoWcXAilfhfpSy1frBu/ASi
OMk/0u47q/pZTnihJ+w7nFSqY53Po90ylK2YlA6Kg3vwzc9t62uOGJmQK9pQMtXf
e+R9/cH6
-----END CERTIFICATE-----
