Certificate:
    Data:
        Version: 3 (0x2)
        Serial Number:
            ff:cf:46:d8:34:2f:0f:92:36:58:d9:a8:f5:1c:a3:77
        Signature Algorithm: sha256WithRSAEncryption
        Issuer: CN=ChangeMe
        Validity
            Not Before: Nov 28 01:12:21 2021 GMT
            Not After : Nov 26 01:12:21 2031 GMT
        Subject: CN=server
        Subject Public Key Info:
            Public Key Algorithm: rsaEncryption
                RSA Public-Key: (2048 bit)
                Modulus:
                    00:c9:53:fe:2e:09:56:8c:98:2e:12:bd:14:28:70:
                    a0:54:a2:35:ab:2a:42:ec:6f:d1:97:4b:55:7c:ee:
                    f8:dc:0a:98:49:99:7d:a0:85:b3:ef:2c:a9:b7:36:
                    86:ff:99:71:6f:36:fd:9b:63:ad:93:bd:20:38:c1:
                    38:75:00:cc:db:93:43:dc:a9:46:c3:74:df:35:ff:
                    ce:28:d8:9a:e9:28:83:a4:47:9b:c0:6e:30:97:8e:
                    2b:ee:7c:4e:1c:72:39:ce:2f:eb:14:65:b7:95:2d:
                    f0:62:57:e7:a3:73:8f:bc:76:e3:79:f8:47:97:96:
                    41:cf:a7:01:29:17:ff:a4:17:87:e2:ae:00:63:57:
                    cf:f1:81:a5:44:b6:f0:64:c5:1d:d8:5a:1e:9d:75:
                    8d:07:89:ac:48:87:7a:7b:83:4e:69:55:ab:8b:22:
                    0b:79:8e:fc:8e:fd:94:fb:fe:ca:cb:eb:7a:ae:c3:
                    1a:c0:de:f2:37:51:2d:ea:7d:2b:43:f1:1d:82:77:
                    13:7a:da:04:dd:68:55:f4:8e:31:3a:85:b5:07:e5:
                    80:70:06:83:9a:3c:35:4c:25:36:75:67:c1:56:1d:
                    33:57:96:48:83:1d:bf:b3:8f:f2:3d:78:7d:0a:e4:
                    aa:fb:be:aa:d8:22:7a:da:32:c9:d6:93:15:8e:39:
                    f9:87
                Exponent: 65537 (0x10001)
        X509v3 extensions:
            X509v3 Basic Constraints:
                CA:FALSE
            X509v3 Subject Key Identifier:
                60:9C:C6:45:CB:BC:B7:85:24:64:93:FE:97:C6:AD:86:A0:C2:8E:F0
            X509v3 Authority Key Identifier:
                keyid:C4:57:D8:CA:58:02:14:83:60:BA:BA:C6:81:5F:00:35:A9:B6:5E:F3
                DirName:/CN=ChangeMe
                serial:03:13:3A:65:D8:9F:84:3D:18:16:FB:9A:12:3C:B1:F2:FD:F6:02:64

            X509v3 Extended Key Usage:
                TLS Web Server Authentication
            X509v3 Key Usage:
                Digital Signature, Key Encipherment
            X509v3 Subject Alternative Name:
                DNS:server
    Signature Algorithm: sha256WithRSAEncryption
         4d:90:a4:71:91:5b:55:65:a3:a4:ba:3f:8d:74:b3:d8:f9:4b:
         57:69:fb:5d:32:1c:d3:93:f6:dd:1f:f3:36:fe:ed:a1:d7:1a:
         1b:39:fc:94:bf:8c:61:9d:37:e3:64:c1:73:97:96:d3:0a:20:
         ca:f8:f1:ef:34:2c:fb:5a:ba:18:87:53:c8:29:fb:20:96:cd:
         3e:45:bc:30:84:26:e0:0c:c9:7f:41:34:71:63:c6:24:f7:73:
         f1:a9:b3:a1:5c:de:b5:cf:96:14:7e:a1:22:d3:36:bb:65:c2:
         f8:15:b4:d4:d6:69:e8:09:a7:93:85:3b:c9:6f:d2:39:e6:8d:
         17:9e:7b:af:99:31:04:c9:bc:85:ca:f9:66:6f:21:41:a3:d4:
         4f:ed:ab:0e:7e:7f:a7:6c:e9:e3:42:05:16:23:0e:49:2d:dd:
         43:e5:05:89:d2:34:64:8b:71:bf:8f:1b:ba:4f:41:a9:56:11:
         b2:8b:48:2c:6b:7d:9b:d6:bc:f2:88:92:c6:9b:94:5a:88:2a:
         bc:1b:48:83:90:7d:eb:ab:8d:29:e5:db:05:e2:f3:41:e2:65:
         83:94:4c:d5:35:62:7e:7d:15:02:8a:36:cb:c0:ea:4d:5f:08:
         2a:ff:40:aa:3e:94:52:0e:bb:3a:f7:c2:26:3c:e4:ed:34:b0:
         54:31:d9:2e
-----BEGIN CERTIFICATE-----
MIIDYjCCAkqgAwIBAgIRAP/PRtg0Lw+SNljZqPUco3cwDQYJKoZIhvcNAQELBQAw
EzERMA8GA1UEAwwIQ2hhbmdlTWUwHhcNMjExMTI4MDExMjIxWhcNMzExMTI2MDEx
MjIxWjARMQ8wDQYDVQQDDAZzZXJ2ZXIwggEiMA0GCSqGSIb3DQEBAQUAA4IBDwAw
ggEKAoIBAQDJU/4uCVaMmC4SvRQocKBUojWrKkLsb9GXS1V87vjcCphJmX2ghbPv
LKm3Nob/mXFvNv2bY62TvSA4wTh1AMzbk0PcqUbDdN81/84o2JrpKIOkR5vAbjCX
jivufE4ccjnOL+sUZbeVLfBiV+ejc4+8duN5+EeXlkHPpwEpF/+kF4firgBjV8/x
gaVEtvBkxR3YWh6ddY0HiaxIh3p7g05pVauLIgt5jvyO/ZT7/srL63quwxrA3vI3
US3qfStD8R2CdxN62gTdaFX0jjE6hbUH5YBwBoOaPDVMJTZ1Z8FWHTNXlkiDHb+z
j/I9eH0K5Kr7vqrYInraMsnWkxWOOfmHAgMBAAGjgbIwga8wCQYDVR0TBAIwADAd
BgNVHQ4EFgQUYJzGRcu8t4UkZJP+l8athqDCjvAwTgYDVR0jBEcwRYAUxFfYylgC
FINgurrGgV8ANam2XvOhF6QVMBMxETAPBgNVBAMMCENoYW5nZU1lghQDEzpl2J+E
PRgW+5oSPLHy/fYCZDATBgNVHSUEDDAKBggrBgEFBQcDATALBgNVHQ8EBAMCBaAw
EQYDVR0RBAowCIIGc2VydmVyMA0GCSqGSIb3DQEBCwUAA4IBAQBNkKRxkVtVZaOk
uj+NdLPY+UtXaftdMhzTk/bdH/M2/u2h1xobOfyUv4xhnTfjZMFzl5bTCiDK+PHv
NCz7WroYh1PIKfsgls0+RbwwhCbgDMl/QTRxY8Yk93PxqbOhXN61z5YUfqEi0za7
ZcL4FbTU1mnoCaeThTvJb9I55o0XnnuvmTEEybyFyvlmbyFBo9RP7asOfn+nbOnj
QgUWIw5JLd1D5QWJ0jRki3G/jxu6T0GpVhGyi0gsa32b1rzyiJLGm5RaiCq8G0iD
kH3rq40p5dsF4vNB4mWDlEzVNWJ+fRUCijbLwOpNXwgq/0CqPpRSDrs698ImPOTt
NLBUMdku
-----END CERTIFICATE-----
